Certificate:
    Data:
        Version: 3 (0x2)
        Serial Number: 1 (0x1)
    Signature Algorithm: sha1WithRSAEncryption
        Issuer: C=US, ST=Texas, L=Austin, O=IBM, OU=AIMDEV, CN=IMA Development Team
        Validity
            Not Before: Jan 29 21:24:05 2013 GMT
            Not After : Jan 27 21:24:05 2023 GMT
        Subject: C=US, ST=Texas, L=Austin, O=IBM, OU=IMATEST, CN=IMA Test Team(server)
        Subject Public Key Info:
            Public Key Algorithm: rsaEncryption
                Public-Key: (1024 bit)
                Modulus:
                    00:e4:95:2e:12:5f:c4:10:84:dd:c6:b9:dd:3d:2f:
                    b5:70:0d:91:17:af:04:b9:8e:f1:6d:45:ec:f3:78:
                    14:52:00:01:c1:3f:f0:84:b0:12:20:06:40:b3:75:
                    5a:e7:20:80:9f:f9:c5:d5:0d:66:d1:66:b1:2b:25:
                    ad:7b:ed:24:6d:47:c3:74:85:96:b2:37:7e:2a:21:
                    7b:f3:ef:06:cf:d3:57:10:b2:ab:bd:b3:1d:18:a9:
                    01:11:e4:30:5a:79:01:a1:f0:97:cf:3f:36:dc:69:
                    eb:3b:e7:6d:41:ab:82:8a:8f:4c:99:fa:0d:a4:85:
                    54:38:51:06:f5:52:4d:50:c5
                Exponent: 65537 (0x10001)
        X509v3 extensions:
            X509v3 Subject Alternative Name: 
                DNS:*.test.austin.ibm.com
    Signature Algorithm: sha1WithRSAEncryption
         0a:44:0c:df:ff:5a:fa:83:da:8f:4a:07:5d:9d:50:9e:0e:6e:
         a4:89:a0:08:55:ed:50:52:a2:60:75:40:b7:0f:cb:1c:e5:a0:
         9b:c1:6a:41:3b:29:d9:7b:06:b9:d2:0d:61:ed:4e:b3:d2:fc:
         fa:79:c4:b6:cb:eb:10:1e:c5:c9:11:0e:8b:3e:7e:1b:28:d4:
         62:0a:97:d0:c0:48:9f:61:e4:0a:d9:e8:62:63:b1:ba:52:7e:
         ff:36:bb:dc:7b:98:27:4a:ea:14:8b:fc:5a:cf:19:9a:d2:43:
         dc:91:82:45:7d:1d:f5:bc:a2:3e:c2:fa:d2:5b:7d:7e:c0:ab:
         44:02
-----BEGIN CERTIFICATE-----
MIICdDCCAd2gAwIBAgIBATANBgkqhkiG9w0BAQUFADBsMQswCQYDVQQGEwJVUzEO
MAwGA1UECAwFVGV4YXMxDzANBgNVBAcMBkF1c3RpbjEMMAoGA1UECgwDSUJNMQ8w
DQYDVQQLDAZBSU1ERVYxHTAbBgNVBAMMFElNQSBEZXZlbG9wbWVudCBUZWFtMB4X
DTEzMDEyOTIxMjQwNVoXDTIzMDEyNzIxMjQwNVowbjELMAkGA1UEBhMCVVMxDjAM
BgNVBAgMBVRleGFzMQ8wDQYDVQQHDAZBdXN0aW4xDDAKBgNVBAoMA0lCTTEQMA4G
A1UECwwHSU1BVEVTVDEeMBwGA1UEAwwVSU1BIFRlc3QgVGVhbShzZXJ2ZXIpMIGf
MA0GCSqGSIb3DQEBAQUAA4GNADCBiQKBgQDklS4SX8QQhN3Gud09L7VwDZEXrwS5
jvFtRezzeBRSAAHBP/CEsBIgBkCzdVrnIICf+cXVDWbRZrErJa177SRtR8N0hZay
N34qIXvz7wbP01cQsqu9sx0YqQER5DBaeQGh8JfPPzbcaes7521Bq4KKj0yZ+g2k
hVQ4UQb1Uk1QxQIDAQABoyQwIjAgBgNVHREEGTAXghUqLnRlc3QuYXVzdGluLmli
bS5jb20wDQYJKoZIhvcNAQEFBQADgYEACkQM3/9a+oPaj0oHXZ1Qng5upImgCFXt
UFKiYHVAtw/LHOWgm8FqQTsp2XsGudINYe1Os9L8+nnEtsvrEB7FyREOiz5+GyjU
YgqX0MBIn2HkCtnoYmOxulJ+/za73HuYJ0rqFIv8Ws8ZmtJD3JGCRX0d9byiPsL6
0lt9fsCrRAI=
-----END CERTIFICATE-----
Certificate:
    Data:
        Version: 3 (0x2)
        Serial Number: 1 (0x1)
    Signature Algorithm: sha1WithRSAEncryption
        Issuer: C=US, ST=Texas, L=Austin, O=IBM, OU=Corporate, CN=IBM Corporate
        Validity
            Not Before: Jan 29 21:24:05 2013 GMT
            Not After : Jan 27 21:24:05 2023 GMT
        Subject: C=US, ST=Texas, L=Austin, O=IBM, OU=AIMDEV, CN=IMA Development Team
        Subject Public Key Info:
            Public Key Algorithm: rsaEncryption
                Public-Key: (1024 bit)
                Modulus:
                    00:ee:d4:3c:fd:b9:f8:d6:01:df:c8:aa:40:71:32:
                    99:7e:6e:38:8c:f8:e8:7f:a7:24:75:11:31:c9:93:
                    d7:e1:5b:e3:58:ab:14:77:39:04:98:6d:6b:82:f2:
                    a9:95:b7:cc:8c:eb:a2:e7:6d:ed:51:0d:53:64:c2:
                    d1:08:48:e6:8f:c2:b7:f3:f8:ce:ac:72:c8:64:fe:
                    b7:a9:79:a6:3a:04:11:73:a5:d6:34:ad:8f:d9:cb:
                    8e:29:54:a3:7a:35:be:ad:4c:1f:da:ad:46:a7:80:
                    c8:74:cf:ef:5f:b7:42:82:15:6f:05:b3:25:74:d5:
                    2b:4c:95:47:e2:16:a7:aa:f3
                Exponent: 65537 (0x10001)
        X509v3 extensions:
            X509v3 Basic Constraints: 
                CA:TRUE
    Signature Algorithm: sha1WithRSAEncryption
         ba:5c:fc:68:65:34:b0:62:50:15:d1:6d:19:39:fb:79:2d:61:
         b8:37:f5:4e:62:27:59:96:a8:d5:65:d9:3e:13:80:fb:ad:dd:
         bc:13:e5:fd:f1:9a:b0:b7:b5:90:21:5e:a8:bb:e5:db:71:93:
         2c:2b:01:04:9d:96:3c:20:0c:d6:c0:73:96:98:5d:a8:f9:39:
         18:42:b1:b5:9a:17:04:24:91:5d:7b:6e:0c:76:e0:c1:ca:60:
         52:1b:56:b4:7a:36:bc:de:41:37:82:e7:ee:04:b5:71:3c:a0:
         1a:e9:4f:eb:ce:9e:dd:25:d3:0c:04:8e:93:6a:5f:fe:e0:b3:
         45:3f
-----BEGIN CERTIFICATE-----
MIICWjCCAcOgAwIBAgIBATANBgkqhkiG9w0BAQUFADBoMQswCQYDVQQGEwJVUzEO
MAwGA1UECAwFVGV4YXMxDzANBgNVBAcMBkF1c3RpbjEMMAoGA1UECgwDSUJNMRIw
EAYDVQQLDAlDb3Jwb3JhdGUxFjAUBgNVBAMMDUlCTSBDb3Jwb3JhdGUwHhcNMTMw
MTI5MjEyNDA1WhcNMjMwMTI3MjEyNDA1WjBsMQswCQYDVQQGEwJVUzEOMAwGA1UE
CAwFVGV4YXMxDzANBgNVBAcMBkF1c3RpbjEMMAoGA1UECgwDSUJNMQ8wDQYDVQQL
DAZBSU1ERVYxHTAbBgNVBAMMFElNQSBEZXZlbG9wbWVudCBUZWFtMIGfMA0GCSqG
SIb3DQEBAQUAA4GNADCBiQKBgQDu1Dz9ufjWAd/IqkBxMpl+bjiM+Oh/pyR1ETHJ
k9fhW+NYqxR3OQSYbWuC8qmVt8yM66Lnbe1RDVNkwtEISOaPwrfz+M6scshk/rep
eaY6BBFzpdY0rY/Zy44pVKN6Nb6tTB/arUangMh0z+9ft0KCFW8FsyV01StMlUfi
Fqeq8wIDAQABoxAwDjAMBgNVHRMEBTADAQH/MA0GCSqGSIb3DQEBBQUAA4GBALpc
/GhlNLBiUBXRbRk5+3ktYbg39U5iJ1mWqNVl2T4TgPut3bwT5f3xmrC3tZAhXqi7
5dtxkywrAQSdljwgDNbAc5aYXaj5ORhCsbWaFwQkkV17bgx24MHKYFIbVrR6Nrze
QTeC5+4EtXE8oBrpT+vOnt0l0wwEjpNqX/7gs0U/
-----END CERTIFICATE-----
Certificate:
    Data:
        Version: 3 (0x2)
        Serial Number: 1 (0x1)
    Signature Algorithm: sha1WithRSAEncryption
        Issuer: C=US, ST=Texas, L=Austin, O=IBM, OU=Corporate, CN=IBM Corporate
        Validity
            Not Before: Jan 29 21:24:05 2013 GMT
            Not After : Jan 27 21:24:05 2023 GMT
        Subject: C=US, ST=Texas, L=Austin, O=IBM, OU=Corporate, CN=IBM Corporate
        Subject Public Key Info:
            Public Key Algorithm: rsaEncryption
                Public-Key: (1024 bit)
                Modulus:
                    00:e8:77:a2:fa:bc:5b:f3:ce:0f:10:cd:64:8d:8a:
                    f2:8d:99:08:9f:4d:68:2a:52:fd:45:2d:2f:80:b2:
                    2f:e8:33:7d:5a:80:5e:83:7c:ef:ee:12:46:7d:4a:
                    05:17:f0:f1:e3:cf:b4:bc:1c:ff:7f:4f:7f:65:cd:
                    60:e1:05:9f:50:9b:00:ea:71:fb:6b:50:16:c9:00:
                    57:fa:cf:31:b0:90:9c:e4:91:7c:da:69:e7:46:1b:
                    06:31:72:67:6d:27:dd:6a:6a:64:4f:39:28:df:d6:
                    2c:e0:c5:fe:48:a6:ef:f0:e0:7e:82:54:13:9e:8c:
                    d2:cb:df:59:68:31:6e:d2:a5
                Exponent: 65537 (0x10001)
        X509v3 extensions:
            X509v3 Subject Key Identifier: 
                82:8D:BE:4A:6A:B1:5F:31:A1:9C:25:85:CA:59:53:D4:7F:7D:79:3D
            X509v3 Authority Key Identifier: 
                keyid:82:8D:BE:4A:6A:B1:5F:31:A1:9C:25:85:CA:59:53:D4:7F:7D:79:3D

            X509v3 Basic Constraints: 
                CA:TRUE
    Signature Algorithm: sha1WithRSAEncryption
         36:ec:e0:41:26:ed:7a:98:59:e7:ac:e1:9a:4d:a8:c7:bb:1e:
         71:9d:d6:99:86:d3:1b:5d:06:18:3c:35:e6:8c:20:ae:e6:d0:
         95:cc:21:12:2e:72:f9:30:a3:7b:7b:5b:cc:48:45:c4:a4:59:
         3a:21:88:50:70:de:09:41:ee:79:67:04:fa:10:70:51:31:8f:
         8c:6b:64:c1:cf:39:fb:de:fe:fa:33:90:9a:9c:8f:5f:14:9a:
         6a:c6:1b:34:ef:ec:dd:f4:1c:32:08:ff:3d:71:25:8c:85:63:
         88:dd:60:d7:a4:55:f7:17:dd:ae:f3:f9:79:1a:a5:64:43:7b:
         c4:bf
-----BEGIN CERTIFICATE-----
MIICljCCAf+gAwIBAgIBATANBgkqhkiG9w0BAQUFADBoMQswCQYDVQQGEwJVUzEO
MAwGA1UECAwFVGV4YXMxDzANBgNVBAcMBkF1c3RpbjEMMAoGA1UECgwDSUJNMRIw
EAYDVQQLDAlDb3Jwb3JhdGUxFjAUBgNVBAMMDUlCTSBDb3Jwb3JhdGUwHhcNMTMw
MTI5MjEyNDA1WhcNMjMwMTI3MjEyNDA1WjBoMQswCQYDVQQGEwJVUzEOMAwGA1UE
CAwFVGV4YXMxDzANBgNVBAcMBkF1c3RpbjEMMAoGA1UECgwDSUJNMRIwEAYDVQQL
DAlDb3Jwb3JhdGUxFjAUBgNVBAMMDUlCTSBDb3Jwb3JhdGUwgZ8wDQYJKoZIhvcN
AQEBBQADgY0AMIGJAoGBAOh3ovq8W/PODxDNZI2K8o2ZCJ9NaCpS/UUtL4CyL+gz
fVqAXoN87+4SRn1KBRfw8ePPtLwc/39Pf2XNYOEFn1CbAOpx+2tQFskAV/rPMbCQ
nOSRfNpp50YbBjFyZ20n3WpqZE85KN/WLODF/kim7/DgfoJUE56M0svfWWgxbtKl
AgMBAAGjUDBOMB0GA1UdDgQWBBSCjb5KarFfMaGcJYXKWVPUf315PTAfBgNVHSME
GDAWgBSCjb5KarFfMaGcJYXKWVPUf315PTAMBgNVHRMEBTADAQH/MA0GCSqGSIb3
DQEBBQUAA4GBADbs4EEm7XqYWees4ZpNqMe7HnGd1pmG0xtdBhg8NeaMIK7m0JXM
IRIucvkwo3t7W8xIRcSkWTohiFBw3glB7nlnBPoQcFExj4xrZMHPOfve/vozkJqc
j18UmmrGGzTv7N30HDII/z1xJYyFY4jdYNekVfcX3a7z+XkapWRDe8S/
-----END CERTIFICATE-----
