Certificate:
    Data:
        Version: 3 (0x2)
        Serial Number: 1 (0x1)
    Signature Algorithm: sha256WithRSAEncryption
        Issuer: C = US, ST = Texas, L = Austin, O = IBM, OU = Corporate, CN = IBM Corporate A
        Validity
            Not Before: Oct  1 14:49:27 2018 GMT
            Not After : Sep  5 14:49:27 2023 GMT
        Subject: C = US, ST = Texas, L = Austin, O = IBM, OU = Corporate, CN = IBM Corporate A
        Subject Public Key Info:
            Public Key Algorithm: rsaEncryption
                Public-Key: (2048 bit)
                Modulus:
                    00:f6:31:1b:ef:a5:74:1a:70:e6:fd:56:61:40:97:
                    55:f1:5e:7e:36:f6:64:c4:bc:6b:15:7f:03:cb:65:
                    d9:3a:6e:28:43:93:01:df:fb:fa:42:70:35:69:58:
                    68:da:c1:e0:a9:88:d6:ee:2d:3b:55:81:a5:66:c2:
                    66:f0:d8:10:28:b4:4a:a6:55:27:c4:71:be:11:77:
                    e6:30:f9:9a:bb:d7:b3:45:09:6a:0b:51:07:3d:f9:
                    55:30:c4:28:a4:79:1c:58:39:80:c2:12:95:31:bd:
                    d8:fb:1e:3d:06:f0:f6:9f:64:15:4f:31:0f:ed:03:
                    b1:c9:d4:4e:91:0f:56:b4:e4:b9:29:6c:c2:e6:b3:
                    3a:ed:ce:a5:69:76:5e:0b:c9:25:78:b2:fe:0a:25:
                    98:2c:cf:20:71:e0:be:e8:c7:c9:4d:1a:d7:c6:37:
                    b7:97:bf:bb:94:56:8e:c0:3e:e4:ee:51:db:d2:23:
                    24:46:c8:26:51:6b:aa:c6:c7:4a:d5:16:8b:e3:a2:
                    42:6e:41:e3:43:15:c5:27:e1:9d:f0:41:02:8f:55:
                    e9:b0:f5:9f:40:4b:3e:23:cb:d4:be:02:67:fc:67:
                    bd:5f:6e:42:2e:9c:6a:60:4b:06:35:c5:0a:94:88:
                    6c:5e:b9:64:c9:29:74:b6:57:22:b3:1f:0c:a9:ab:
                    3f:0b
                Exponent: 65537 (0x10001)
        X509v3 extensions:
            X509v3 Subject Key Identifier: 
                85:1E:2B:FD:52:C2:92:87:A9:BB:CE:89:F4:D3:94:EC:BF:61:22:43
            X509v3 Authority Key Identifier: 
                keyid:85:1E:2B:FD:52:C2:92:87:A9:BB:CE:89:F4:D3:94:EC:BF:61:22:43

            X509v3 Basic Constraints: critical
                CA:TRUE
    Signature Algorithm: sha256WithRSAEncryption
         8d:e7:f7:fc:66:2c:e4:77:d0:e2:86:9f:bc:2c:f9:d7:63:2b:
         fa:63:fd:fc:0d:a3:28:79:0e:9c:94:ce:d2:b1:e1:4d:01:d0:
         b2:7d:12:07:7f:f1:12:ff:b8:f2:71:a0:cb:3a:a3:12:f5:18:
         09:a3:6e:11:27:02:60:1c:4f:4a:64:aa:89:64:a5:4f:40:6c:
         02:de:ef:38:fe:96:6b:c7:2b:8e:11:a7:76:78:42:d4:4f:a8:
         a0:0e:c2:90:64:ee:56:38:50:5c:82:a6:ab:ed:a1:36:2c:a4:
         5f:df:f5:71:33:3c:3f:37:ca:d4:56:51:df:1a:15:32:1b:53:
         42:46:fb:51:89:94:ae:93:9d:a8:51:59:32:e5:0e:5e:34:0f:
         34:a3:4d:a1:e2:3f:15:a7:2c:7f:fa:27:71:bc:53:48:c0:21:
         ec:36:ae:e8:e3:bd:97:25:7c:7f:23:91:30:9c:a8:e6:9d:e4:
         1b:e0:47:2d:a6:14:bd:78:2b:ac:04:2c:83:26:39:44:3a:93:
         62:c1:13:2b:f4:cc:b3:c0:fb:d3:54:ea:d1:24:4f:20:91:c5:
         73:41:40:d0:29:1d:ea:5d:19:27:74:c2:2a:0a:8f:5c:eb:f5:
         25:ca:1e:9c:68:56:2f:50:17:08:ef:91:07:ea:47:c4:c3:a3:
         13:90:fb:8c
-----BEGIN CERTIFICATE-----
MIIDojCCAoqgAwIBAgIBATANBgkqhkiG9w0BAQsFADBqMQswCQYDVQQGEwJVUzEO
MAwGA1UECAwFVGV4YXMxDzANBgNVBAcMBkF1c3RpbjEMMAoGA1UECgwDSUJNMRIw
EAYDVQQLDAlDb3Jwb3JhdGUxGDAWBgNVBAMMD0lCTSBDb3Jwb3JhdGUgQTAeFw0x
ODEwMDExNDQ5MjdaFw0yMzA5MDUxNDQ5MjdaMGoxCzAJBgNVBAYTAlVTMQ4wDAYD
VQQIDAVUZXhhczEPMA0GA1UEBwwGQXVzdGluMQwwCgYDVQQKDANJQk0xEjAQBgNV
BAsMCUNvcnBvcmF0ZTEYMBYGA1UEAwwPSUJNIENvcnBvcmF0ZSBBMIIBIjANBgkq
hkiG9w0BAQEFAAOCAQ8AMIIBCgKCAQEA9jEb76V0GnDm/VZhQJdV8V5+NvZkxLxr
FX8Dy2XZOm4oQ5MB3/v6QnA1aVho2sHgqYjW7i07VYGlZsJm8NgQKLRKplUnxHG+
EXfmMPmau9ezRQlqC1EHPflVMMQopHkcWDmAwhKVMb3Y+x49BvD2n2QVTzEP7QOx
ydROkQ9WtOS5KWzC5rM67c6laXZeC8kleLL+CiWYLM8gceC+6MfJTRrXxje3l7+7
lFaOwD7k7lHb0iMkRsgmUWuqxsdK1RaL46JCbkHjQxXFJ+Gd8EECj1XpsPWfQEs+
I8vUvgJn/Ge9X25CLpxqYEsGNcUKlIhsXrlkySl0tlcisx8Mqas/CwIDAQABo1Mw
UTAdBgNVHQ4EFgQUhR4r/VLCkoepu86J9NOU7L9hIkMwHwYDVR0jBBgwFoAUhR4r
/VLCkoepu86J9NOU7L9hIkMwDwYDVR0TAQH/BAUwAwEB/zANBgkqhkiG9w0BAQsF
AAOCAQEAjef3/GYs5HfQ4oafvCz512Mr+mP9/A2jKHkOnJTO0rHhTQHQsn0SB3/x
Ev+48nGgyzqjEvUYCaNuEScCYBxPSmSqiWSlT0BsAt7vOP6Wa8crjhGndnhC1E+o
oA7CkGTuVjhQXIKmq+2hNiykX9/1cTM8PzfK1FZR3xoVMhtTQkb7UYmUrpOdqFFZ
MuUOXjQPNKNNoeI/Facsf/oncbxTSMAh7Dau6OO9lyV8fyORMJyo5p3kG+BHLaYU
vXgrrAQsgyY5RDqTYsETK/TMs8D701Tq0SRPIJHFc0FA0Ckd6l0ZJ3TCKgqPXOv1
JcoenGhWL1AXCO+RB+pHxMOjE5D7jA==
-----END CERTIFICATE-----
Certificate:
    Data:
        Version: 3 (0x2)
        Serial Number: 1 (0x1)
    Signature Algorithm: sha256WithRSAEncryption
        Issuer: C = US, ST = Texas, L = Austin, O = IBM, OU = Corporate, CN = IBM Corporate B
        Validity
            Not Before: Oct  1 14:49:27 2018 GMT
            Not After : Sep  5 14:49:27 2023 GMT
        Subject: C = US, ST = Texas, L = Austin, O = IBM, OU = Corporate, CN = IBM Corporate B
        Subject Public Key Info:
            Public Key Algorithm: rsaEncryption
                Public-Key: (2048 bit)
                Modulus:
                    00:c5:f9:73:77:65:82:7a:f6:69:35:0c:a2:be:5f:
                    b1:f5:5c:06:b0:39:78:6d:3f:b4:5a:50:f7:78:00:
                    56:e2:ef:28:9f:40:35:50:b6:bb:2d:de:ea:3d:cd:
                    37:5b:cc:91:9b:35:db:03:8e:f4:8d:ed:a1:f4:36:
                    5d:ad:21:63:b0:97:39:c0:c0:d4:fd:19:83:ec:bc:
                    ac:56:66:59:69:6f:41:05:3d:2e:93:e1:b6:49:db:
                    fe:52:02:7c:20:f4:af:24:26:99:b3:cd:b1:ea:f8:
                    e9:87:66:5b:6b:77:68:d4:64:e3:5f:f8:1b:52:e1:
                    65:f7:28:2c:6f:46:cd:2a:5a:ae:b7:0e:dc:70:a4:
                    df:50:53:b6:20:5c:ac:26:7d:ad:2e:06:2a:65:c5:
                    c0:20:76:71:e5:43:36:2a:ae:5b:59:79:fb:a9:ec:
                    fd:30:e5:df:79:47:d3:93:e1:f9:e7:b5:29:fd:8a:
                    bd:b6:9d:52:40:55:68:ff:be:94:61:e3:53:e5:67:
                    ac:80:6c:a5:4a:da:49:48:a1:37:b8:34:6c:47:b9:
                    d5:4b:73:ef:88:ed:0a:19:3a:f3:7e:f9:5d:d9:c6:
                    39:68:25:73:b9:17:b0:03:8a:ef:a8:33:ba:89:26:
                    d9:9d:70:f2:48:2e:83:79:bb:a1:5a:35:f6:10:c0:
                    86:c5
                Exponent: 65537 (0x10001)
        X509v3 extensions:
            X509v3 Subject Key Identifier: 
                35:C7:49:32:94:58:CB:5C:3C:1D:0E:08:AF:EC:C8:1B:AA:DB:83:AD
            X509v3 Authority Key Identifier: 
                keyid:35:C7:49:32:94:58:CB:5C:3C:1D:0E:08:AF:EC:C8:1B:AA:DB:83:AD

            X509v3 Basic Constraints: critical
                CA:TRUE
    Signature Algorithm: sha256WithRSAEncryption
         31:1c:9b:37:8c:cd:72:57:f3:6a:ca:0f:bb:2d:b9:94:05:ba:
         8e:48:95:e3:18:00:b7:cb:9e:77:55:0c:83:9a:02:8b:f4:1f:
         8a:25:62:97:5c:3c:d3:51:6c:15:02:ac:04:fa:0a:e6:ff:76:
         97:68:18:69:17:be:33:42:08:15:c1:79:ab:5b:3c:34:b3:48:
         3f:f2:62:af:7a:06:12:e7:d6:14:f9:62:e8:0d:bf:da:2c:b7:
         c6:0f:b9:18:53:66:9c:3d:3c:14:3f:49:d8:2c:5f:33:68:3f:
         b5:dd:38:fb:27:57:32:0d:36:3b:ad:f5:ba:6c:cf:4d:3d:b7:
         cc:4c:9b:b7:7b:03:30:af:87:7e:a6:ae:02:31:83:4c:e1:ff:
         ce:23:ab:63:80:9e:a3:84:14:bd:b4:e1:98:77:9f:29:f2:6e:
         02:1d:e7:3c:22:8a:7b:d1:4e:81:e8:63:36:6f:cb:92:5c:97:
         8e:ea:1c:a8:ff:21:18:65:64:40:84:e9:96:38:99:7d:64:31:
         34:3d:18:95:65:a7:62:89:4c:26:5f:28:bb:32:30:95:fe:58:
         4c:8e:9c:48:1c:6e:32:b5:0b:63:9e:bf:a7:3e:0c:76:ef:9d:
         e1:ef:4d:0e:51:14:a7:c2:3b:96:76:cf:c9:78:99:b7:eb:3f:
         a7:1a:ef:c1
-----BEGIN CERTIFICATE-----
MIIDojCCAoqgAwIBAgIBATANBgkqhkiG9w0BAQsFADBqMQswCQYDVQQGEwJVUzEO
MAwGA1UECAwFVGV4YXMxDzANBgNVBAcMBkF1c3RpbjEMMAoGA1UECgwDSUJNMRIw
EAYDVQQLDAlDb3Jwb3JhdGUxGDAWBgNVBAMMD0lCTSBDb3Jwb3JhdGUgQjAeFw0x
ODEwMDExNDQ5MjdaFw0yMzA5MDUxNDQ5MjdaMGoxCzAJBgNVBAYTAlVTMQ4wDAYD
VQQIDAVUZXhhczEPMA0GA1UEBwwGQXVzdGluMQwwCgYDVQQKDANJQk0xEjAQBgNV
BAsMCUNvcnBvcmF0ZTEYMBYGA1UEAwwPSUJNIENvcnBvcmF0ZSBCMIIBIjANBgkq
hkiG9w0BAQEFAAOCAQ8AMIIBCgKCAQEAxflzd2WCevZpNQyivl+x9VwGsDl4bT+0
WlD3eABW4u8on0A1ULa7Ld7qPc03W8yRmzXbA470je2h9DZdrSFjsJc5wMDU/RmD
7LysVmZZaW9BBT0uk+G2Sdv+UgJ8IPSvJCaZs82x6vjph2Zba3do1GTjX/gbUuFl
9ygsb0bNKlqutw7ccKTfUFO2IFysJn2tLgYqZcXAIHZx5UM2Kq5bWXn7qez9MOXf
eUfTk+H557Up/Yq9tp1SQFVo/76UYeNT5WesgGylStpJSKE3uDRsR7nVS3PviO0K
GTrzfvld2cY5aCVzuRewA4rvqDO6iSbZnXDySC6DebuhWjX2EMCGxQIDAQABo1Mw
UTAdBgNVHQ4EFgQUNcdJMpRYy1w8HQ4Ir+zIG6rbg60wHwYDVR0jBBgwFoAUNcdJ
MpRYy1w8HQ4Ir+zIG6rbg60wDwYDVR0TAQH/BAUwAwEB/zANBgkqhkiG9w0BAQsF
AAOCAQEAMRybN4zNclfzasoPuy25lAW6jkiV4xgAt8ued1UMg5oCi/QfiiVil1w8
01FsFQKsBPoK5v92l2gYaRe+M0IIFcF5q1s8NLNIP/Jir3oGEufWFPli6A2/2iy3
xg+5GFNmnD08FD9J2CxfM2g/td04+ydXMg02O631umzPTT23zEybt3sDMK+Hfqau
AjGDTOH/ziOrY4Ceo4QUvbThmHefKfJuAh3nPCKKe9FOgehjNm/LklyXjuocqP8h
GGVkQITpljiZfWQxND0YlWWnYolMJl8ouzIwlf5YTI6cSBxuMrULY56/pz4Mdu+d
4e9NDlEUp8I7lnbPyXiZt+s/pxrvwQ==
-----END CERTIFICATE-----
